                              1 ;--------------------------------------------------------
                              2 ; File Created by SDCC : FreeWare ANSI-C Compiler
                              3 ; Version 2.2.1 Wed Sep 11 20:16:09 2024
                              4 
                              5 ;--------------------------------------------------------
                              6 	.module lcc258400
                              7 	
                              8 ;--------------------------------------------------------
                              9 ; Public variables in this module
                             10 ;--------------------------------------------------------
                             11 	.globl _main
                             12 	.globl _setupfishl
                             13 	.globl _setupfishr
                             14 	.globl _movegamecharacter
                             15 	.globl _move_sprite
                             16 	.globl _set_sprite_tile
                             17 	.globl _set_sprite_data
                             18 	.globl _spritesize
                             19 	.globl _fishl
                             20 	.globl _fishr
                             21 	.globl _SimpleFish
                             22 	.globl _main
                             23 	.globl _setupfishl
                             24 	.globl _setupfishr
                             25 	.globl _movegamecharacter
                             26 ;--------------------------------------------------------
                             27 ; Externals used
                             28 ;--------------------------------------------------------
                             29 	.globl _IE_REG
                             30 	.globl _SVBK_REG
                             31 	.globl _OCPD_REG
                             32 	.globl _OCPS_REG
                             33 	.globl _BCPD_REG
                             34 	.globl _BCPS_REG
                             35 	.globl _RP_REG
                             36 	.globl _HDMA5_REG
                             37 	.globl _HDMA4_REG
                             38 	.globl _HDMA3_REG
                             39 	.globl _HDMA2_REG
                             40 	.globl _HDMA1_REG
                             41 	.globl _VBK_REG
                             42 	.globl _KEY1_REG
                             43 	.globl _WX_REG
                             44 	.globl _WY_REG
                             45 	.globl _OBP1_REG
                             46 	.globl _OBP0_REG
                             47 	.globl _BGP_REG
                             48 	.globl _DMA_REG
                             49 	.globl _LYC_REG
                             50 	.globl _LY_REG
                             51 	.globl _SCX_REG
                             52 	.globl _SCY_REG
                             53 	.globl _STAT_REG
                             54 	.globl _LCDC_REG
                             55 	.globl _NR52_REG
                             56 	.globl _NR51_REG
                             57 	.globl _NR50_REG
                             58 	.globl _NR44_REG
                             59 	.globl _NR43_REG
                             60 	.globl _NR42_REG
                             61 	.globl _NR41_REG
                             62 	.globl _NR34_REG
                             63 	.globl _NR33_REG
                             64 	.globl _NR32_REG
                             65 	.globl _NR31_REG
                             66 	.globl _NR30_REG
                             67 	.globl _NR24_REG
                             68 	.globl _NR23_REG
                             69 	.globl _NR22_REG
                             70 	.globl _NR21_REG
                             71 	.globl _NR14_REG
                             72 	.globl _NR13_REG
                             73 	.globl _NR12_REG
                             74 	.globl _NR11_REG
                             75 	.globl _NR10_REG
                             76 	.globl _IF_REG
                             77 	.globl _TAC_REG
                             78 	.globl _TMA_REG
                             79 	.globl _TIMA_REG
                             80 	.globl _DIV_REG
                             81 	.globl _SC_REG
                             82 	.globl _SB_REG
                             83 	.globl _P1_REG
                             84 	.globl __io_out
                             85 	.globl __io_in
                             86 	.globl __io_status
                             87 	.globl _sys_time
                             88 	.globl __cpu
                             89 ;--------------------------------------------------------
                             90 ; special function registers
                             91 ;--------------------------------------------------------
                             92 ;--------------------------------------------------------
                             93 ; special function bits 
                             94 ;--------------------------------------------------------
                             95 ;--------------------------------------------------------
                             96 ; internal ram data
                             97 ;--------------------------------------------------------
                             98 	.area _DATA
   0000                      99 _SimpleFish::
   0000                     100 	.ds 192
   00C0                     101 _fishr::
   00C0                     102 	.ds 16
   00D0                     103 _fishl::
   00D0                     104 	.ds 16
   00E0                     105 _spritesize::
   00E0                     106 	.ds 1
                            107 ;--------------------------------------------------------
                            108 ; overlayable items in internal ram 
                            109 ;--------------------------------------------------------
                            110 	.area _OVERLAY
                            111 ;--------------------------------------------------------
                            112 ; indirectly addressable internal ram data
                            113 ;--------------------------------------------------------
                            114 	.area _ISEG
                            115 ;--------------------------------------------------------
                            116 ; bit data
                            117 ;--------------------------------------------------------
                            118 	.area _BSEG
                            119 ;--------------------------------------------------------
                            120 ; external ram data
                            121 ;--------------------------------------------------------
                            122 	.area _XSEG
                            123 ;--------------------------------------------------------
                            124 ; global & static initialisations
                            125 ;--------------------------------------------------------
                            126 	.area _GSINIT
                            127 	.area _GSFINAL
                            128 	.area _GSINIT
                            129 ;	main.c 83
                            130 ; genAssign (pointer)
   0000 11 00 00            131 	ld	de,#_SimpleFish + 0
   0003 3E E0               132 	ld	a,#0xE0
   0005 12                  133 	ld	(de),a
                            134 ; genPlus
                            135 ; genPlusIncr
   0006 11 01 00            136 	ld	de,#_SimpleFish + 0 + 1
                            137 ; genAssign (pointer)
   0009 3E E0               138 	ld	a,#0xE0
   000B 12                  139 	ld	(de),a
                            140 ; genPlus
                            141 ; genPlusIncr
   000C 11 02 00            142 	ld	de,#_SimpleFish + 0 + 2
                            143 ; genAssign (pointer)
   000F 3E 98               144 	ld	a,#0x98
   0011 12                  145 	ld	(de),a
                            146 ; genPlus
                            147 ; genPlusIncr
   0012 11 03 00            148 	ld	de,#_SimpleFish + 0 + 3
                            149 ; genAssign (pointer)
   0015 3E 98               150 	ld	a,#0x98
   0017 12                  151 	ld	(de),a
                            152 ; genPlus
                            153 ; genPlusIncr
   0018 11 04 00            154 	ld	de,#_SimpleFish + 0 + 4
                            155 ; genAssign (pointer)
   001B 3E 44               156 	ld	a,#0x44
   001D 12                  157 	ld	(de),a
                            158 ; genPlus
                            159 ; genPlusIncr
   001E 11 05 00            160 	ld	de,#_SimpleFish + 0 + 5
                            161 ; genAssign (pointer)
   0021 3E 64               162 	ld	a,#0x64
   0023 12                  163 	ld	(de),a
                            164 ; genPlus
                            165 ; genPlusIncr
   0024 11 06 00            166 	ld	de,#_SimpleFish + 0 + 6
                            167 ; genAssign (pointer)
   0027 3E 2A               168 	ld	a,#0x2A
   0029 12                  169 	ld	(de),a
                            170 ; genPlus
                            171 ; genPlusIncr
   002A 11 07 00            172 	ld	de,#_SimpleFish + 0 + 7
                            173 ; genAssign (pointer)
   002D 3E 32               174 	ld	a,#0x32
   002F 12                  175 	ld	(de),a
                            176 ; genPlus
                            177 ; genPlusIncr
   0030 11 08 00            178 	ld	de,#_SimpleFish + 0 + 8
                            179 ; genAssign (pointer)
   0033 3E 1D               180 	ld	a,#0x1D
   0035 12                  181 	ld	(de),a
                            182 ; genPlus
                            183 ; genPlusIncr
   0036 11 09 00            184 	ld	de,#_SimpleFish + 0 + 9
                            185 ; genAssign (pointer)
   0039 3E 11               186 	ld	a,#0x11
   003B 12                  187 	ld	(de),a
                            188 ; genPlus
                            189 ; genPlusIncr
   003C 11 0A 00            190 	ld	de,#_SimpleFish + 0 + 10
                            191 ; genAssign (pointer)
   003F 3E 17               192 	ld	a,#0x17
   0041 12                  193 	ld	(de),a
                            194 ; genPlus
                            195 ; genPlusIncr
   0042 11 0B 00            196 	ld	de,#_SimpleFish + 0 + 11
                            197 ; genAssign (pointer)
   0045 3E 18               198 	ld	a,#0x18
   0047 12                  199 	ld	(de),a
                            200 ; genPlus
                            201 ; genPlusIncr
   0048 11 0C 00            202 	ld	de,#_SimpleFish + 0 + 12
                            203 ; genAssign (pointer)
   004B 3E 10               204 	ld	a,#0x10
   004D 12                  205 	ld	(de),a
                            206 ; genPlus
                            207 ; genPlusIncr
   004E 11 0D 00            208 	ld	de,#_SimpleFish + 0 + 13
                            209 ; genAssign (pointer)
   0051 3E 1F               210 	ld	a,#0x1F
   0053 12                  211 	ld	(de),a
                            212 ; genPlus
                            213 ; genPlusIncr
   0054 11 0E 00            214 	ld	de,#_SimpleFish + 0 + 14
                            215 ; genAssign (pointer)
   0057 3E 13               216 	ld	a,#0x13
   0059 12                  217 	ld	(de),a
                            218 ; genPlus
                            219 ; genPlusIncr
   005A 11 0F 00            220 	ld	de,#_SimpleFish + 0 + 15
                            221 ; genAssign (pointer)
   005D 3E 1F               222 	ld	a,#0x1F
   005F 12                  223 	ld	(de),a
                            224 ; genPlus
                            225 ; genPlusIncr
   0060 11 10 00            226 	ld	de,#_SimpleFish + 0 + 16
                            227 ; genAssign (pointer)
   0063 3E 0F               228 	ld	a,#0x0F
   0065 12                  229 	ld	(de),a
                            230 ; genPlus
                            231 ; genPlusIncr
   0066 11 11 00            232 	ld	de,#_SimpleFish + 0 + 17
                            233 ; genAssign (pointer)
   0069 3E 0F               234 	ld	a,#0x0F
   006B 12                  235 	ld	(de),a
                            236 ; genPlus
                            237 ; genPlusIncr
   006C 11 12 00            238 	ld	de,#_SimpleFish + 0 + 18
                            239 ; genAssign (pointer)
   006F 3E 0C               240 	ld	a,#0x0C
   0071 12                  241 	ld	(de),a
                            242 ; genPlus
                            243 ; genPlusIncr
   0072 11 13 00            244 	ld	de,#_SimpleFish + 0 + 19
                            245 ; genAssign (pointer)
   0075 3E 08               246 	ld	a,#0x08
   0077 12                  247 	ld	(de),a
                            248 ; genPlus
                            249 ; genPlusIncr
   0078 11 14 00            250 	ld	de,#_SimpleFish + 0 + 20
                            251 ; genAssign (pointer)
   007B 3E 3F               252 	ld	a,#0x3F
   007D 12                  253 	ld	(de),a
                            254 ; genPlus
                            255 ; genPlusIncr
   007E 11 15 00            256 	ld	de,#_SimpleFish + 0 + 21
                            257 ; genAssign (pointer)
   0081 3E 30               258 	ld	a,#0x30
   0083 12                  259 	ld	(de),a
                            260 ; genPlus
                            261 ; genPlusIncr
   0084 11 16 00            262 	ld	de,#_SimpleFish + 0 + 22
                            263 ; genAssign (pointer)
   0087 3E FF               264 	ld	a,#0xFF
   0089 12                  265 	ld	(de),a
                            266 ; genPlus
                            267 ; genPlusIncr
   008A 11 17 00            268 	ld	de,#_SimpleFish + 0 + 23
                            269 ; genAssign (pointer)
   008D 3E C0               270 	ld	a,#0xC0
   008F 12                  271 	ld	(de),a
                            272 ; genPlus
                            273 ; genPlusIncr
   0090 11 18 00            274 	ld	de,#_SimpleFish + 0 + 24
                            275 ; genAssign (pointer)
   0093 3E FE               276 	ld	a,#0xFE
   0095 12                  277 	ld	(de),a
                            278 ; genPlus
                            279 ; genPlusIncr
   0096 11 19 00            280 	ld	de,#_SimpleFish + 0 + 25
                            281 ; genAssign (pointer)
   0099 3E 01               282 	ld	a,#0x01
   009B 12                  283 	ld	(de),a
                            284 ; genPlus
                            285 ; genPlusIncr
   009C 11 1A 00            286 	ld	de,#_SimpleFish + 0 + 26
                            287 ; genAssign (pointer)
   009F 3E FE               288 	ld	a,#0xFE
   00A1 12                  289 	ld	(de),a
                            290 ; genPlus
                            291 ; genPlusIncr
   00A2 11 1B 00            292 	ld	de,#_SimpleFish + 0 + 27
                            293 ; genAssign (pointer)
   00A5 3E 01               294 	ld	a,#0x01
   00A7 12                  295 	ld	(de),a
                            296 ; genPlus
                            297 ; genPlusIncr
   00A8 11 1C 00            298 	ld	de,#_SimpleFish + 0 + 28
                            299 ; genAssign (pointer)
   00AB 3E FE               300 	ld	a,#0xFE
   00AD 12                  301 	ld	(de),a
                            302 ; genPlus
                            303 ; genPlusIncr
   00AE 11 1D 00            304 	ld	de,#_SimpleFish + 0 + 29
                            305 ; genAssign (pointer)
   00B1 3E 01               306 	ld	a,#0x01
   00B3 12                  307 	ld	(de),a
                            308 ; genPlus
                            309 ; genPlusIncr
   00B4 11 1E 00            310 	ld	de,#_SimpleFish + 0 + 30
                            311 ; genAssign (pointer)
   00B7 3E 9F               312 	ld	a,#0x9F
   00B9 12                  313 	ld	(de),a
                            314 ; genPlus
                            315 ; genPlusIncr
   00BA 11 1F 00            316 	ld	de,#_SimpleFish + 0 + 31
                            317 ; genAssign (pointer)
   00BD 3E E4               318 	ld	a,#0xE4
   00BF 12                  319 	ld	(de),a
                            320 ; genPlus
                            321 ; genPlusIncr
   00C0 11 20 00            322 	ld	de,#_SimpleFish + 0 + 32
                            323 ; genAssign (pointer)
   00C3 3E 80               324 	ld	a,#0x80
   00C5 12                  325 	ld	(de),a
                            326 ; genPlus
                            327 ; genPlusIncr
   00C6 11 21 00            328 	ld	de,#_SimpleFish + 0 + 33
                            329 ; genAssign (pointer)
   00C9 3E 80               330 	ld	a,#0x80
   00CB 12                  331 	ld	(de),a
                            332 ; genPlus
                            333 ; genPlusIncr
   00CC 11 22 00            334 	ld	de,#_SimpleFish + 0 + 34
                            335 ; genAssign (pointer)
   00CF 3E 60               336 	ld	a,#0x60
   00D1 12                  337 	ld	(de),a
                            338 ; genPlus
                            339 ; genPlusIncr
   00D2 11 23 00            340 	ld	de,#_SimpleFish + 0 + 35
                            341 ; genAssign (pointer)
   00D5 3E 60               342 	ld	a,#0x60
   00D7 12                  343 	ld	(de),a
                            344 ; genPlus
                            345 ; genPlusIncr
   00D8 11 24 00            346 	ld	de,#_SimpleFish + 0 + 36
                            347 ; genAssign (pointer)
   00DB 3E 98               348 	ld	a,#0x98
   00DD 12                  349 	ld	(de),a
                            350 ; genPlus
                            351 ; genPlusIncr
   00DE 11 25 00            352 	ld	de,#_SimpleFish + 0 + 37
                            353 ; genAssign (pointer)
   00E1 3E 18               354 	ld	a,#0x18
   00E3 12                  355 	ld	(de),a
                            356 ; genPlus
                            357 ; genPlusIncr
   00E4 11 26 00            358 	ld	de,#_SimpleFish + 0 + 38
                            359 ; genAssign (pointer)
   00E7 3E E4               360 	ld	a,#0xE4
   00E9 12                  361 	ld	(de),a
                            362 ; genPlus
                            363 ; genPlusIncr
   00EA 11 27 00            364 	ld	de,#_SimpleFish + 0 + 39
                            365 ; genAssign (pointer)
   00ED 3E 04               366 	ld	a,#0x04
   00EF 12                  367 	ld	(de),a
                            368 ; genPlus
                            369 ; genPlusIncr
   00F0 11 28 00            370 	ld	de,#_SimpleFish + 0 + 40
                            371 ; genAssign (pointer)
   00F3 3E FA               372 	ld	a,#0xFA
   00F5 12                  373 	ld	(de),a
                            374 ; genPlus
                            375 ; genPlusIncr
   00F6 11 29 00            376 	ld	de,#_SimpleFish + 0 + 41
                            377 ; genAssign (pointer)
   00F9 3E 22               378 	ld	a,#0x22
   00FB 12                  379 	ld	(de),a
                            380 ; genPlus
                            381 ; genPlusIncr
   00FC 11 2A 00            382 	ld	de,#_SimpleFish + 0 + 42
                            383 ; genAssign (pointer)
   00FF 3E FE               384 	ld	a,#0xFE
   0101 12                  385 	ld	(de),a
                            386 ; genPlus
                            387 ; genPlusIncr
   0102 11 2B 00            388 	ld	de,#_SimpleFish + 0 + 43
                            389 ; genAssign (pointer)
   0105 3E 02               390 	ld	a,#0x02
   0107 12                  391 	ld	(de),a
                            392 ; genPlus
                            393 ; genPlusIncr
   0108 11 2C 00            394 	ld	de,#_SimpleFish + 0 + 44
                            395 ; genAssign (pointer)
   010B 3E FE               396 	ld	a,#0xFE
   010D 12                  397 	ld	(de),a
                            398 ; genPlus
                            399 ; genPlusIncr
   010E 11 2D 00            400 	ld	de,#_SimpleFish + 0 + 45
                            401 ; genAssign (pointer)
   0111 3E 02               402 	ld	a,#0x02
   0113 12                  403 	ld	(de),a
                            404 ; genPlus
                            405 ; genPlusIncr
   0114 11 2E 00            406 	ld	de,#_SimpleFish + 0 + 46
                            407 ; genAssign (pointer)
   0117 3E 7C               408 	ld	a,#0x7C
   0119 12                  409 	ld	(de),a
                            410 ; genPlus
                            411 ; genPlusIncr
   011A 11 2F 00            412 	ld	de,#_SimpleFish + 0 + 47
                            413 ; genAssign (pointer)
   011D 3E 84               414 	ld	a,#0x84
   011F 12                  415 	ld	(de),a
                            416 ; genPlus
                            417 ; genPlusIncr
   0120 11 30 00            418 	ld	de,#_SimpleFish + 0 + 48
                            419 ; genAssign (pointer)
   0123 3E 24               420 	ld	a,#0x24
   0125 12                  421 	ld	(de),a
                            422 ; genPlus
                            423 ; genPlusIncr
   0126 11 31 00            424 	ld	de,#_SimpleFish + 0 + 49
                            425 ; genAssign (pointer)
   0129 3E 3C               426 	ld	a,#0x3C
   012B 12                  427 	ld	(de),a
                            428 ; genPlus
                            429 ; genPlusIncr
   012C 11 32 00            430 	ld	de,#_SimpleFish + 0 + 50
                            431 ; genAssign (pointer)
   012F 3E 38               432 	ld	a,#0x38
   0131 12                  433 	ld	(de),a
                            434 ; genPlus
                            435 ; genPlusIncr
   0132 11 33 00            436 	ld	de,#_SimpleFish + 0 + 51
                            437 ; genAssign (pointer)
   0135 3E 38               438 	ld	a,#0x38
   0137 12                  439 	ld	(de),a
                            440 ; genPlus
                            441 ; genPlusIncr
   0138 11 34 00            442 	ld	de,#_SimpleFish + 0 + 52
                            443 ; genAssign (pointer)
   013B 3E 00               444 	ld	a,#0x00
   013D 12                  445 	ld	(de),a
                            446 ; genPlus
                            447 ; genPlusIncr
   013E 11 35 00            448 	ld	de,#_SimpleFish + 0 + 53
                            449 ; genAssign (pointer)
   0141 3E 00               450 	ld	a,#0x00
   0143 12                  451 	ld	(de),a
                            452 ; genPlus
                            453 ; genPlusIncr
   0144 11 36 00            454 	ld	de,#_SimpleFish + 0 + 54
                            455 ; genAssign (pointer)
   0147 3E 00               456 	ld	a,#0x00
   0149 12                  457 	ld	(de),a
                            458 ; genPlus
                            459 ; genPlusIncr
   014A 11 37 00            460 	ld	de,#_SimpleFish + 0 + 55
                            461 ; genAssign (pointer)
   014D 3E 00               462 	ld	a,#0x00
   014F 12                  463 	ld	(de),a
                            464 ; genPlus
                            465 ; genPlusIncr
   0150 11 38 00            466 	ld	de,#_SimpleFish + 0 + 56
                            467 ; genAssign (pointer)
   0153 3E 00               468 	ld	a,#0x00
   0155 12                  469 	ld	(de),a
                            470 ; genPlus
                            471 ; genPlusIncr
   0156 11 39 00            472 	ld	de,#_SimpleFish + 0 + 57
                            473 ; genAssign (pointer)
   0159 3E 00               474 	ld	a,#0x00
   015B 12                  475 	ld	(de),a
                            476 ; genPlus
                            477 ; genPlusIncr
   015C 11 3A 00            478 	ld	de,#_SimpleFish + 0 + 58
                            479 ; genAssign (pointer)
   015F 3E 00               480 	ld	a,#0x00
   0161 12                  481 	ld	(de),a
                            482 ; genPlus
                            483 ; genPlusIncr
   0162 11 3B 00            484 	ld	de,#_SimpleFish + 0 + 59
                            485 ; genAssign (pointer)
   0165 3E 00               486 	ld	a,#0x00
   0167 12                  487 	ld	(de),a
                            488 ; genPlus
                            489 ; genPlusIncr
   0168 11 3C 00            490 	ld	de,#_SimpleFish + 0 + 60
                            491 ; genAssign (pointer)
   016B 3E 00               492 	ld	a,#0x00
   016D 12                  493 	ld	(de),a
                            494 ; genPlus
                            495 ; genPlusIncr
   016E 11 3D 00            496 	ld	de,#_SimpleFish + 0 + 61
                            497 ; genAssign (pointer)
   0171 3E 00               498 	ld	a,#0x00
   0173 12                  499 	ld	(de),a
                            500 ; genPlus
                            501 ; genPlusIncr
   0174 11 3E 00            502 	ld	de,#_SimpleFish + 0 + 62
                            503 ; genAssign (pointer)
   0177 3E 00               504 	ld	a,#0x00
   0179 12                  505 	ld	(de),a
                            506 ; genPlus
                            507 ; genPlusIncr
   017A 11 3F 00            508 	ld	de,#_SimpleFish + 0 + 63
                            509 ; genAssign (pointer)
   017D 3E 00               510 	ld	a,#0x00
   017F 12                  511 	ld	(de),a
                            512 ; genPlus
                            513 ; genPlusIncr
   0180 11 40 00            514 	ld	de,#_SimpleFish + 0 + 64
                            515 ; genAssign (pointer)
   0183 3E 6A               516 	ld	a,#0x6A
   0185 12                  517 	ld	(de),a
                            518 ; genPlus
                            519 ; genPlusIncr
   0186 11 41 00            520 	ld	de,#_SimpleFish + 0 + 65
                            521 ; genAssign (pointer)
   0189 3E 7D               522 	ld	a,#0x7D
   018B 12                  523 	ld	(de),a
                            524 ; genPlus
                            525 ; genPlusIncr
   018C 11 42 00            526 	ld	de,#_SimpleFish + 0 + 66
                            527 ; genAssign (pointer)
   018F 3E 19               528 	ld	a,#0x19
   0191 12                  529 	ld	(de),a
                            530 ; genPlus
                            531 ; genPlusIncr
   0192 11 43 00            532 	ld	de,#_SimpleFish + 0 + 67
                            533 ; genAssign (pointer)
   0195 3E 1F               534 	ld	a,#0x1F
   0197 12                  535 	ld	(de),a
                            536 ; genPlus
                            537 ; genPlusIncr
   0198 11 44 00            538 	ld	de,#_SimpleFish + 0 + 68
                            539 ; genAssign (pointer)
   019B 3E 0E               540 	ld	a,#0x0E
   019D 12                  541 	ld	(de),a
                            542 ; genPlus
                            543 ; genPlusIncr
   019E 11 45 00            544 	ld	de,#_SimpleFish + 0 + 69
                            545 ; genAssign (pointer)
   01A1 3E 0E               546 	ld	a,#0x0E
   01A3 12                  547 	ld	(de),a
                            548 ; genPlus
                            549 ; genPlusIncr
   01A4 11 46 00            550 	ld	de,#_SimpleFish + 0 + 70
                            551 ; genAssign (pointer)
   01A7 3E 00               552 	ld	a,#0x00
   01A9 12                  553 	ld	(de),a
                            554 ; genPlus
                            555 ; genPlusIncr
   01AA 11 47 00            556 	ld	de,#_SimpleFish + 0 + 71
                            557 ; genAssign (pointer)
   01AD 3E 00               558 	ld	a,#0x00
   01AF 12                  559 	ld	(de),a
                            560 ; genPlus
                            561 ; genPlusIncr
   01B0 11 48 00            562 	ld	de,#_SimpleFish + 0 + 72
                            563 ; genAssign (pointer)
   01B3 3E 00               564 	ld	a,#0x00
   01B5 12                  565 	ld	(de),a
                            566 ; genPlus
                            567 ; genPlusIncr
   01B6 11 49 00            568 	ld	de,#_SimpleFish + 0 + 73
                            569 ; genAssign (pointer)
   01B9 3E 00               570 	ld	a,#0x00
   01BB 12                  571 	ld	(de),a
                            572 ; genPlus
                            573 ; genPlusIncr
   01BC 11 4A 00            574 	ld	de,#_SimpleFish + 0 + 74
                            575 ; genAssign (pointer)
   01BF 3E 00               576 	ld	a,#0x00
   01C1 12                  577 	ld	(de),a
                            578 ; genPlus
                            579 ; genPlusIncr
   01C2 11 4B 00            580 	ld	de,#_SimpleFish + 0 + 75
                            581 ; genAssign (pointer)
   01C5 3E 00               582 	ld	a,#0x00
   01C7 12                  583 	ld	(de),a
                            584 ; genPlus
                            585 ; genPlusIncr
   01C8 11 4C 00            586 	ld	de,#_SimpleFish + 0 + 76
                            587 ; genAssign (pointer)
   01CB 3E 00               588 	ld	a,#0x00
   01CD 12                  589 	ld	(de),a
                            590 ; genPlus
                            591 ; genPlusIncr
   01CE 11 4D 00            592 	ld	de,#_SimpleFish + 0 + 77
                            593 ; genAssign (pointer)
   01D1 3E 00               594 	ld	a,#0x00
   01D3 12                  595 	ld	(de),a
                            596 ; genPlus
                            597 ; genPlusIncr
   01D4 11 4E 00            598 	ld	de,#_SimpleFish + 0 + 78
                            599 ; genAssign (pointer)
   01D7 3E 00               600 	ld	a,#0x00
   01D9 12                  601 	ld	(de),a
                            602 ; genPlus
                            603 ; genPlusIncr
   01DA 11 4F 00            604 	ld	de,#_SimpleFish + 0 + 79
                            605 ; genAssign (pointer)
   01DD 3E 00               606 	ld	a,#0x00
   01DF 12                  607 	ld	(de),a
                            608 ; genPlus
                            609 ; genPlusIncr
   01E0 11 50 00            610 	ld	de,#_SimpleFish + 0 + 80
                            611 ; genAssign (pointer)
   01E3 3E 18               612 	ld	a,#0x18
   01E5 12                  613 	ld	(de),a
                            614 ; genPlus
                            615 ; genPlusIncr
   01E6 11 51 00            616 	ld	de,#_SimpleFish + 0 + 81
                            617 ; genAssign (pointer)
   01E9 3E F8               618 	ld	a,#0xF8
   01EB 12                  619 	ld	(de),a
                            620 ; genPlus
                            621 ; genPlusIncr
   01EC 11 52 00            622 	ld	de,#_SimpleFish + 0 + 82
                            623 ; genAssign (pointer)
   01EF 3E E0               624 	ld	a,#0xE0
   01F1 12                  625 	ld	(de),a
                            626 ; genPlus
                            627 ; genPlusIncr
   01F2 11 53 00            628 	ld	de,#_SimpleFish + 0 + 83
                            629 ; genAssign (pointer)
   01F5 3E E0               630 	ld	a,#0xE0
   01F7 12                  631 	ld	(de),a
                            632 ; genPlus
                            633 ; genPlusIncr
   01F8 11 54 00            634 	ld	de,#_SimpleFish + 0 + 84
                            635 ; genAssign (pointer)
   01FB 3E 00               636 	ld	a,#0x00
   01FD 12                  637 	ld	(de),a
                            638 ; genPlus
                            639 ; genPlusIncr
   01FE 11 55 00            640 	ld	de,#_SimpleFish + 0 + 85
                            641 ; genAssign (pointer)
   0201 3E 00               642 	ld	a,#0x00
   0203 12                  643 	ld	(de),a
                            644 ; genPlus
                            645 ; genPlusIncr
   0204 11 56 00            646 	ld	de,#_SimpleFish + 0 + 86
                            647 ; genAssign (pointer)
   0207 3E 00               648 	ld	a,#0x00
   0209 12                  649 	ld	(de),a
                            650 ; genPlus
                            651 ; genPlusIncr
   020A 11 57 00            652 	ld	de,#_SimpleFish + 0 + 87
                            653 ; genAssign (pointer)
   020D 3E 00               654 	ld	a,#0x00
   020F 12                  655 	ld	(de),a
                            656 ; genPlus
                            657 ; genPlusIncr
   0210 11 58 00            658 	ld	de,#_SimpleFish + 0 + 88
                            659 ; genAssign (pointer)
   0213 3E 00               660 	ld	a,#0x00
   0215 12                  661 	ld	(de),a
                            662 ; genPlus
                            663 ; genPlusIncr
   0216 11 59 00            664 	ld	de,#_SimpleFish + 0 + 89
                            665 ; genAssign (pointer)
   0219 3E 00               666 	ld	a,#0x00
   021B 12                  667 	ld	(de),a
                            668 ; genPlus
                            669 ; genPlusIncr
   021C 11 5A 00            670 	ld	de,#_SimpleFish + 0 + 90
                            671 ; genAssign (pointer)
   021F 3E 00               672 	ld	a,#0x00
   0221 12                  673 	ld	(de),a
                            674 ; genPlus
                            675 ; genPlusIncr
   0222 11 5B 00            676 	ld	de,#_SimpleFish + 0 + 91
                            677 ; genAssign (pointer)
   0225 3E 00               678 	ld	a,#0x00
   0227 12                  679 	ld	(de),a
                            680 ; genPlus
                            681 ; genPlusIncr
   0228 11 5C 00            682 	ld	de,#_SimpleFish + 0 + 92
                            683 ; genAssign (pointer)
   022B 3E 00               684 	ld	a,#0x00
   022D 12                  685 	ld	(de),a
                            686 ; genPlus
                            687 ; genPlusIncr
   022E 11 5D 00            688 	ld	de,#_SimpleFish + 0 + 93
                            689 ; genAssign (pointer)
   0231 3E 00               690 	ld	a,#0x00
   0233 12                  691 	ld	(de),a
                            692 ; genPlus
                            693 ; genPlusIncr
   0234 11 5E 00            694 	ld	de,#_SimpleFish + 0 + 94
                            695 ; genAssign (pointer)
   0237 3E 00               696 	ld	a,#0x00
   0239 12                  697 	ld	(de),a
                            698 ; genPlus
                            699 ; genPlusIncr
   023A 11 5F 00            700 	ld	de,#_SimpleFish + 0 + 95
                            701 ; genAssign (pointer)
   023D 3E 00               702 	ld	a,#0x00
   023F 12                  703 	ld	(de),a
                            704 ; genPlus
                            705 ; genPlusIncr
   0240 11 60 00            706 	ld	de,#_SimpleFish + 0 + 96
                            707 ; genAssign (pointer)
   0243 3E 03               708 	ld	a,#0x03
   0245 12                  709 	ld	(de),a
                            710 ; genPlus
                            711 ; genPlusIncr
   0246 11 61 00            712 	ld	de,#_SimpleFish + 0 + 97
                            713 ; genAssign (pointer)
   0249 3E 03               714 	ld	a,#0x03
   024B 12                  715 	ld	(de),a
                            716 ; genPlus
                            717 ; genPlusIncr
   024C 11 62 00            718 	ld	de,#_SimpleFish + 0 + 98
                            719 ; genAssign (pointer)
   024F 3E 0C               720 	ld	a,#0x0C
   0251 12                  721 	ld	(de),a
                            722 ; genPlus
                            723 ; genPlusIncr
   0252 11 63 00            724 	ld	de,#_SimpleFish + 0 + 99
                            725 ; genAssign (pointer)
   0255 3E 0C               726 	ld	a,#0x0C
   0257 12                  727 	ld	(de),a
                            728 ; genPlus
                            729 ; genPlusIncr
   0258 11 64 00            730 	ld	de,#_SimpleFish + 0 + 100
                            731 ; genAssign (pointer)
   025B 3E 33               732 	ld	a,#0x33
   025D 12                  733 	ld	(de),a
                            734 ; genPlus
                            735 ; genPlusIncr
   025E 11 65 00            736 	ld	de,#_SimpleFish + 0 + 101
                            737 ; genAssign (pointer)
   0261 3E 30               738 	ld	a,#0x30
   0263 12                  739 	ld	(de),a
                            740 ; genPlus
                            741 ; genPlusIncr
   0264 11 66 00            742 	ld	de,#_SimpleFish + 0 + 102
                            743 ; genAssign (pointer)
   0267 3E 4F               744 	ld	a,#0x4F
   0269 12                  745 	ld	(de),a
                            746 ; genPlus
                            747 ; genPlusIncr
   026A 11 67 00            748 	ld	de,#_SimpleFish + 0 + 103
                            749 ; genAssign (pointer)
   026D 3E 40               750 	ld	a,#0x40
   026F 12                  751 	ld	(de),a
                            752 ; genPlus
                            753 ; genPlusIncr
   0270 11 68 00            754 	ld	de,#_SimpleFish + 0 + 104
                            755 ; genAssign (pointer)
   0273 3E BE               756 	ld	a,#0xBE
   0275 12                  757 	ld	(de),a
                            758 ; genPlus
                            759 ; genPlusIncr
   0276 11 69 00            760 	ld	de,#_SimpleFish + 0 + 105
                            761 ; genAssign (pointer)
   0279 3E 89               762 	ld	a,#0x89
   027B 12                  763 	ld	(de),a
                            764 ; genPlus
                            765 ; genPlusIncr
   027C 11 6A 00            766 	ld	de,#_SimpleFish + 0 + 106
                            767 ; genAssign (pointer)
   027F 3E FE               768 	ld	a,#0xFE
   0281 12                  769 	ld	(de),a
                            770 ; genPlus
                            771 ; genPlusIncr
   0282 11 6B 00            772 	ld	de,#_SimpleFish + 0 + 107
                            773 ; genAssign (pointer)
   0285 3E 81               774 	ld	a,#0x81
   0287 12                  775 	ld	(de),a
                            776 ; genPlus
                            777 ; genPlusIncr
   0288 11 6C 00            778 	ld	de,#_SimpleFish + 0 + 108
                            779 ; genAssign (pointer)
   028B 3E FE               780 	ld	a,#0xFE
   028D 12                  781 	ld	(de),a
                            782 ; genPlus
                            783 ; genPlusIncr
   028E 11 6D 00            784 	ld	de,#_SimpleFish + 0 + 109
                            785 ; genAssign (pointer)
   0291 3E 81               786 	ld	a,#0x81
   0293 12                  787 	ld	(de),a
                            788 ; genPlus
                            789 ; genPlusIncr
   0294 11 6E 00            790 	ld	de,#_SimpleFish + 0 + 110
                            791 ; genAssign (pointer)
   0297 3E 7D               792 	ld	a,#0x7D
   0299 12                  793 	ld	(de),a
                            794 ; genPlus
                            795 ; genPlusIncr
   029A 11 6F 00            796 	ld	de,#_SimpleFish + 0 + 111
                            797 ; genAssign (pointer)
   029D 3E 42               798 	ld	a,#0x42
   029F 12                  799 	ld	(de),a
                            800 ; genPlus
                            801 ; genPlusIncr
   02A0 11 70 00            802 	ld	de,#_SimpleFish + 0 + 112
                            803 ; genAssign (pointer)
   02A3 3E E0               804 	ld	a,#0xE0
   02A5 12                  805 	ld	(de),a
                            806 ; genPlus
                            807 ; genPlusIncr
   02A6 11 71 00            808 	ld	de,#_SimpleFish + 0 + 113
                            809 ; genAssign (pointer)
   02A9 3E E0               810 	ld	a,#0xE0
   02AB 12                  811 	ld	(de),a
                            812 ; genPlus
                            813 ; genPlusIncr
   02AC 11 72 00            814 	ld	de,#_SimpleFish + 0 + 114
                            815 ; genAssign (pointer)
   02AF 3E 60               816 	ld	a,#0x60
   02B1 12                  817 	ld	(de),a
                            818 ; genPlus
                            819 ; genPlusIncr
   02B2 11 73 00            820 	ld	de,#_SimpleFish + 0 + 115
                            821 ; genAssign (pointer)
   02B5 3E 20               822 	ld	a,#0x20
   02B7 12                  823 	ld	(de),a
                            824 ; genPlus
                            825 ; genPlusIncr
   02B8 11 74 00            826 	ld	de,#_SimpleFish + 0 + 116
                            827 ; genAssign (pointer)
   02BB 3E F8               828 	ld	a,#0xF8
   02BD 12                  829 	ld	(de),a
                            830 ; genPlus
                            831 ; genPlusIncr
   02BE 11 75 00            832 	ld	de,#_SimpleFish + 0 + 117
                            833 ; genAssign (pointer)
   02C1 3E 18               834 	ld	a,#0x18
   02C3 12                  835 	ld	(de),a
                            836 ; genPlus
                            837 ; genPlusIncr
   02C4 11 76 00            838 	ld	de,#_SimpleFish + 0 + 118
                            839 ; genAssign (pointer)
   02C7 3E FE               840 	ld	a,#0xFE
   02C9 12                  841 	ld	(de),a
                            842 ; genPlus
                            843 ; genPlusIncr
   02CA 11 77 00            844 	ld	de,#_SimpleFish + 0 + 119
                            845 ; genAssign (pointer)
   02CD 3E 06               846 	ld	a,#0x06
   02CF 12                  847 	ld	(de),a
                            848 ; genPlus
                            849 ; genPlusIncr
   02D0 11 78 00            850 	ld	de,#_SimpleFish + 0 + 120
                            851 ; genAssign (pointer)
   02D3 3E FF               852 	ld	a,#0xFF
   02D5 12                  853 	ld	(de),a
                            854 ; genPlus
                            855 ; genPlusIncr
   02D6 11 79 00            856 	ld	de,#_SimpleFish + 0 + 121
                            857 ; genAssign (pointer)
   02D9 3E 01               858 	ld	a,#0x01
   02DB 12                  859 	ld	(de),a
                            860 ; genPlus
                            861 ; genPlusIncr
   02DC 11 7A 00            862 	ld	de,#_SimpleFish + 0 + 122
                            863 ; genAssign (pointer)
   02DF 3E FF               864 	ld	a,#0xFF
   02E1 12                  865 	ld	(de),a
                            866 ; genPlus
                            867 ; genPlusIncr
   02E2 11 7B 00            868 	ld	de,#_SimpleFish + 0 + 123
                            869 ; genAssign (pointer)
   02E5 3E 00               870 	ld	a,#0x00
   02E7 12                  871 	ld	(de),a
                            872 ; genPlus
                            873 ; genPlusIncr
   02E8 11 7C 00            874 	ld	de,#_SimpleFish + 0 + 124
                            875 ; genAssign (pointer)
   02EB 3E FE               876 	ld	a,#0xFE
   02ED 12                  877 	ld	(de),a
                            878 ; genPlus
                            879 ; genPlusIncr
   02EE 11 7D 00            880 	ld	de,#_SimpleFish + 0 + 125
                            881 ; genAssign (pointer)
   02F1 3E 01               882 	ld	a,#0x01
   02F3 12                  883 	ld	(de),a
                            884 ; genPlus
                            885 ; genPlusIncr
   02F4 11 7E 00            886 	ld	de,#_SimpleFish + 0 + 126
                            887 ; genAssign (pointer)
   02F7 3E F3               888 	ld	a,#0xF3
   02F9 12                  889 	ld	(de),a
                            890 ; genPlus
                            891 ; genPlusIncr
   02FA 11 7F 00            892 	ld	de,#_SimpleFish + 0 + 127
                            893 ; genAssign (pointer)
   02FD 3E 4F               894 	ld	a,#0x4F
   02FF 12                  895 	ld	(de),a
                            896 ; genPlus
                            897 ; genPlusIncr
   0300 11 80 00            898 	ld	de,#_SimpleFish + 0 + 128
                            899 ; genAssign (pointer)
   0303 3E 0E               900 	ld	a,#0x0E
   0305 12                  901 	ld	(de),a
                            902 ; genPlus
                            903 ; genPlusIncr
   0306 11 81 00            904 	ld	de,#_SimpleFish + 0 + 129
                            905 ; genAssign (pointer)
   0309 3E 0E               906 	ld	a,#0x0E
   030B 12                  907 	ld	(de),a
                            908 ; genPlus
                            909 ; genPlusIncr
   030C 11 82 00            910 	ld	de,#_SimpleFish + 0 + 130
                            911 ; genAssign (pointer)
   030F 3E 32               912 	ld	a,#0x32
   0311 12                  913 	ld	(de),a
                            914 ; genPlus
                            915 ; genPlusIncr
   0312 11 83 00            916 	ld	de,#_SimpleFish + 0 + 131
                            917 ; genAssign (pointer)
   0315 3E 32               918 	ld	a,#0x32
   0317 12                  919 	ld	(de),a
                            920 ; genPlus
                            921 ; genPlusIncr
   0318 11 84 00            922 	ld	de,#_SimpleFish + 0 + 132
                            923 ; genAssign (pointer)
   031B 3E 44               924 	ld	a,#0x44
   031D 12                  925 	ld	(de),a
                            926 ; genPlus
                            927 ; genPlusIncr
   031E 11 85 00            928 	ld	de,#_SimpleFish + 0 + 133
                            929 ; genAssign (pointer)
   0321 3E 4C               930 	ld	a,#0x4C
   0323 12                  931 	ld	(de),a
                            932 ; genPlus
                            933 ; genPlusIncr
   0324 11 86 00            934 	ld	de,#_SimpleFish + 0 + 134
                            935 ; genAssign (pointer)
   0327 3E A8               936 	ld	a,#0xA8
   0329 12                  937 	ld	(de),a
                            938 ; genPlus
                            939 ; genPlusIncr
   032A 11 87 00            940 	ld	de,#_SimpleFish + 0 + 135
                            941 ; genAssign (pointer)
   032D 3E 98               942 	ld	a,#0x98
   032F 12                  943 	ld	(de),a
                            944 ; genPlus
                            945 ; genPlusIncr
   0330 11 88 00            946 	ld	de,#_SimpleFish + 0 + 136
                            947 ; genAssign (pointer)
   0333 3E 70               948 	ld	a,#0x70
   0335 12                  949 	ld	(de),a
                            950 ; genPlus
                            951 ; genPlusIncr
   0336 11 89 00            952 	ld	de,#_SimpleFish + 0 + 137
                            953 ; genAssign (pointer)
   0339 3E 10               954 	ld	a,#0x10
   033B 12                  955 	ld	(de),a
                            956 ; genPlus
                            957 ; genPlusIncr
   033C 11 8A 00            958 	ld	de,#_SimpleFish + 0 + 138
                            959 ; genAssign (pointer)
   033F 3E D0               960 	ld	a,#0xD0
   0341 12                  961 	ld	(de),a
                            962 ; genPlus
                            963 ; genPlusIncr
   0342 11 8B 00            964 	ld	de,#_SimpleFish + 0 + 139
                            965 ; genAssign (pointer)
   0345 3E 30               966 	ld	a,#0x30
   0347 12                  967 	ld	(de),a
                            968 ; genPlus
                            969 ; genPlusIncr
   0348 11 8C 00            970 	ld	de,#_SimpleFish + 0 + 140
                            971 ; genAssign (pointer)
   034B 3E 10               972 	ld	a,#0x10
   034D 12                  973 	ld	(de),a
                            974 ; genPlus
                            975 ; genPlusIncr
   034E 11 8D 00            976 	ld	de,#_SimpleFish + 0 + 141
                            977 ; genAssign (pointer)
   0351 3E F0               978 	ld	a,#0xF0
   0353 12                  979 	ld	(de),a
                            980 ; genPlus
                            981 ; genPlusIncr
   0354 11 8E 00            982 	ld	de,#_SimpleFish + 0 + 142
                            983 ; genAssign (pointer)
   0357 3E 90               984 	ld	a,#0x90
   0359 12                  985 	ld	(de),a
                            986 ; genPlus
                            987 ; genPlusIncr
   035A 11 8F 00            988 	ld	de,#_SimpleFish + 0 + 143
                            989 ; genAssign (pointer)
   035D 3E F0               990 	ld	a,#0xF0
   035F 12                  991 	ld	(de),a
                            992 ; genPlus
                            993 ; genPlusIncr
   0360 11 90 00            994 	ld	de,#_SimpleFish + 0 + 144
                            995 ; genAssign (pointer)
   0363 3E 30               996 	ld	a,#0x30
   0365 12                  997 	ld	(de),a
                            998 ; genPlus
                            999 ; genPlusIncr
   0366 11 91 00           1000 	ld	de,#_SimpleFish + 0 + 145
                           1001 ; genAssign (pointer)
   0369 3E 3F              1002 	ld	a,#0x3F
   036B 12                 1003 	ld	(de),a
                           1004 ; genPlus
                           1005 ; genPlusIncr
   036C 11 92 00           1006 	ld	de,#_SimpleFish + 0 + 146
                           1007 ; genAssign (pointer)
   036F 3E 0F              1008 	ld	a,#0x0F
   0371 12                 1009 	ld	(de),a
                           1010 ; genPlus
                           1011 ; genPlusIncr
   0372 11 93 00           1012 	ld	de,#_SimpleFish + 0 + 147
                           1013 ; genAssign (pointer)
   0375 3E 0F              1014 	ld	a,#0x0F
   0377 12                 1015 	ld	(de),a
                           1016 ; genPlus
                           1017 ; genPlusIncr
   0378 11 94 00           1018 	ld	de,#_SimpleFish + 0 + 148
                           1019 ; genAssign (pointer)
   037B 3E 00              1020 	ld	a,#0x00
   037D 12                 1021 	ld	(de),a
                           1022 ; genPlus
                           1023 ; genPlusIncr
   037E 11 95 00           1024 	ld	de,#_SimpleFish + 0 + 149
                           1025 ; genAssign (pointer)
   0381 3E 00              1026 	ld	a,#0x00
   0383 12                 1027 	ld	(de),a
                           1028 ; genPlus
                           1029 ; genPlusIncr
   0384 11 96 00           1030 	ld	de,#_SimpleFish + 0 + 150
                           1031 ; genAssign (pointer)
   0387 3E 00              1032 	ld	a,#0x00
   0389 12                 1033 	ld	(de),a
                           1034 ; genPlus
                           1035 ; genPlusIncr
   038A 11 97 00           1036 	ld	de,#_SimpleFish + 0 + 151
                           1037 ; genAssign (pointer)
   038D 3E 00              1038 	ld	a,#0x00
   038F 12                 1039 	ld	(de),a
                           1040 ; genPlus
                           1041 ; genPlusIncr
   0390 11 98 00           1042 	ld	de,#_SimpleFish + 0 + 152
                           1043 ; genAssign (pointer)
   0393 3E 00              1044 	ld	a,#0x00
   0395 12                 1045 	ld	(de),a
                           1046 ; genPlus
                           1047 ; genPlusIncr
   0396 11 99 00           1048 	ld	de,#_SimpleFish + 0 + 153
                           1049 ; genAssign (pointer)
   0399 3E 00              1050 	ld	a,#0x00
   039B 12                 1051 	ld	(de),a
                           1052 ; genPlus
                           1053 ; genPlusIncr
   039C 11 9A 00           1054 	ld	de,#_SimpleFish + 0 + 154
                           1055 ; genAssign (pointer)
   039F 3E 00              1056 	ld	a,#0x00
   03A1 12                 1057 	ld	(de),a
                           1058 ; genPlus
                           1059 ; genPlusIncr
   03A2 11 9B 00           1060 	ld	de,#_SimpleFish + 0 + 155
                           1061 ; genAssign (pointer)
   03A5 3E 00              1062 	ld	a,#0x00
   03A7 12                 1063 	ld	(de),a
                           1064 ; genPlus
                           1065 ; genPlusIncr
   03A8 11 9C 00           1066 	ld	de,#_SimpleFish + 0 + 156
                           1067 ; genAssign (pointer)
   03AB 3E 00              1068 	ld	a,#0x00
   03AD 12                 1069 	ld	(de),a
                           1070 ; genPlus
                           1071 ; genPlusIncr
   03AE 11 9D 00           1072 	ld	de,#_SimpleFish + 0 + 157
                           1073 ; genAssign (pointer)
   03B1 3E 00              1074 	ld	a,#0x00
   03B3 12                 1075 	ld	(de),a
                           1076 ; genPlus
                           1077 ; genPlusIncr
   03B4 11 9E 00           1078 	ld	de,#_SimpleFish + 0 + 158
                           1079 ; genAssign (pointer)
   03B7 3E 00              1080 	ld	a,#0x00
   03B9 12                 1081 	ld	(de),a
                           1082 ; genPlus
                           1083 ; genPlusIncr
   03BA 11 9F 00           1084 	ld	de,#_SimpleFish + 0 + 159
                           1085 ; genAssign (pointer)
   03BD 3E 00              1086 	ld	a,#0x00
   03BF 12                 1087 	ld	(de),a
                           1088 ; genPlus
                           1089 ; genPlusIncr
   03C0 11 A0 00           1090 	ld	de,#_SimpleFish + 0 + 160
                           1091 ; genAssign (pointer)
   03C3 3E AC              1092 	ld	a,#0xAC
   03C5 12                 1093 	ld	(de),a
                           1094 ; genPlus
                           1095 ; genPlusIncr
   03C6 11 A1 00           1096 	ld	de,#_SimpleFish + 0 + 161
                           1097 ; genAssign (pointer)
   03C9 3E 7C              1098 	ld	a,#0x7C
   03CB 12                 1099 	ld	(de),a
                           1100 ; genPlus
                           1101 ; genPlusIncr
   03CC 11 A2 00           1102 	ld	de,#_SimpleFish + 0 + 162
                           1103 ; genAssign (pointer)
   03CF 3E 30              1104 	ld	a,#0x30
   03D1 12                 1105 	ld	(de),a
                           1106 ; genPlus
                           1107 ; genPlusIncr
   03D2 11 A3 00           1108 	ld	de,#_SimpleFish + 0 + 163
                           1109 ; genAssign (pointer)
   03D5 3E F0              1110 	ld	a,#0xF0
   03D7 12                 1111 	ld	(de),a
                           1112 ; genPlus
                           1113 ; genPlusIncr
   03D8 11 A4 00           1114 	ld	de,#_SimpleFish + 0 + 164
                           1115 ; genAssign (pointer)
   03DB 3E E0              1116 	ld	a,#0xE0
   03DD 12                 1117 	ld	(de),a
                           1118 ; genPlus
                           1119 ; genPlusIncr
   03DE 11 A5 00           1120 	ld	de,#_SimpleFish + 0 + 165
                           1121 ; genAssign (pointer)
   03E1 3E E0              1122 	ld	a,#0xE0
   03E3 12                 1123 	ld	(de),a
                           1124 ; genPlus
                           1125 ; genPlusIncr
   03E4 11 A6 00           1126 	ld	de,#_SimpleFish + 0 + 166
                           1127 ; genAssign (pointer)
   03E7 3E 00              1128 	ld	a,#0x00
   03E9 12                 1129 	ld	(de),a
                           1130 ; genPlus
                           1131 ; genPlusIncr
   03EA 11 A7 00           1132 	ld	de,#_SimpleFish + 0 + 167
                           1133 ; genAssign (pointer)
   03ED 3E 00              1134 	ld	a,#0x00
   03EF 12                 1135 	ld	(de),a
                           1136 ; genPlus
                           1137 ; genPlusIncr
   03F0 11 A8 00           1138 	ld	de,#_SimpleFish + 0 + 168
                           1139 ; genAssign (pointer)
   03F3 3E 00              1140 	ld	a,#0x00
   03F5 12                 1141 	ld	(de),a
                           1142 ; genPlus
                           1143 ; genPlusIncr
   03F6 11 A9 00           1144 	ld	de,#_SimpleFish + 0 + 169
                           1145 ; genAssign (pointer)
   03F9 3E 00              1146 	ld	a,#0x00
   03FB 12                 1147 	ld	(de),a
                           1148 ; genPlus
                           1149 ; genPlusIncr
   03FC 11 AA 00           1150 	ld	de,#_SimpleFish + 0 + 170
                           1151 ; genAssign (pointer)
   03FF 3E 00              1152 	ld	a,#0x00
   0401 12                 1153 	ld	(de),a
                           1154 ; genPlus
                           1155 ; genPlusIncr
   0402 11 AB 00           1156 	ld	de,#_SimpleFish + 0 + 171
                           1157 ; genAssign (pointer)
   0405 3E 00              1158 	ld	a,#0x00
   0407 12                 1159 	ld	(de),a
                           1160 ; genPlus
                           1161 ; genPlusIncr
   0408 11 AC 00           1162 	ld	de,#_SimpleFish + 0 + 172
                           1163 ; genAssign (pointer)
   040B 3E 00              1164 	ld	a,#0x00
   040D 12                 1165 	ld	(de),a
                           1166 ; genPlus
                           1167 ; genPlusIncr
   040E 11 AD 00           1168 	ld	de,#_SimpleFish + 0 + 173
                           1169 ; genAssign (pointer)
   0411 3E 00              1170 	ld	a,#0x00
   0413 12                 1171 	ld	(de),a
                           1172 ; genPlus
                           1173 ; genPlusIncr
   0414 11 AE 00           1174 	ld	de,#_SimpleFish + 0 + 174
                           1175 ; genAssign (pointer)
   0417 3E 00              1176 	ld	a,#0x00
   0419 12                 1177 	ld	(de),a
                           1178 ; genPlus
                           1179 ; genPlusIncr
   041A 11 AF 00           1180 	ld	de,#_SimpleFish + 0 + 175
                           1181 ; genAssign (pointer)
   041D 3E 00              1182 	ld	a,#0x00
   041F 12                 1183 	ld	(de),a
                           1184 ; genPlus
                           1185 ; genPlusIncr
   0420 11 B0 00           1186 	ld	de,#_SimpleFish + 0 + 176
                           1187 ; genAssign (pointer)
   0423 3E 48              1188 	ld	a,#0x48
   0425 12                 1189 	ld	(de),a
                           1190 ; genPlus
                           1191 ; genPlusIncr
   0426 11 B1 00           1192 	ld	de,#_SimpleFish + 0 + 177
                           1193 ; genAssign (pointer)
   0429 3E 78              1194 	ld	a,#0x78
   042B 12                 1195 	ld	(de),a
                           1196 ; genPlus
                           1197 ; genPlusIncr
   042C 11 B2 00           1198 	ld	de,#_SimpleFish + 0 + 178
                           1199 ; genAssign (pointer)
   042F 3E 38              1200 	ld	a,#0x38
   0431 12                 1201 	ld	(de),a
                           1202 ; genPlus
                           1203 ; genPlusIncr
   0432 11 B3 00           1204 	ld	de,#_SimpleFish + 0 + 179
                           1205 ; genAssign (pointer)
   0435 3E 38              1206 	ld	a,#0x38
   0437 12                 1207 	ld	(de),a
                           1208 ; genPlus
                           1209 ; genPlusIncr
   0438 11 B4 00           1210 	ld	de,#_SimpleFish + 0 + 180
                           1211 ; genAssign (pointer)
   043B 3E 00              1212 	ld	a,#0x00
   043D 12                 1213 	ld	(de),a
                           1214 ; genPlus
                           1215 ; genPlusIncr
   043E 11 B5 00           1216 	ld	de,#_SimpleFish + 0 + 181
                           1217 ; genAssign (pointer)
   0441 3E 00              1218 	ld	a,#0x00
   0443 12                 1219 	ld	(de),a
                           1220 ; genPlus
                           1221 ; genPlusIncr
   0444 11 B6 00           1222 	ld	de,#_SimpleFish + 0 + 182
                           1223 ; genAssign (pointer)
   0447 3E 00              1224 	ld	a,#0x00
   0449 12                 1225 	ld	(de),a
                           1226 ; genPlus
                           1227 ; genPlusIncr
   044A 11 B7 00           1228 	ld	de,#_SimpleFish + 0 + 183
                           1229 ; genAssign (pointer)
   044D 3E 00              1230 	ld	a,#0x00
   044F 12                 1231 	ld	(de),a
                           1232 ; genPlus
                           1233 ; genPlusIncr
   0450 11 B8 00           1234 	ld	de,#_SimpleFish + 0 + 184
                           1235 ; genAssign (pointer)
   0453 3E 00              1236 	ld	a,#0x00
   0455 12                 1237 	ld	(de),a
                           1238 ; genPlus
                           1239 ; genPlusIncr
   0456 11 B9 00           1240 	ld	de,#_SimpleFish + 0 + 185
                           1241 ; genAssign (pointer)
   0459 3E 00              1242 	ld	a,#0x00
   045B 12                 1243 	ld	(de),a
                           1244 ; genPlus
                           1245 ; genPlusIncr
   045C 11 BA 00           1246 	ld	de,#_SimpleFish + 0 + 186
                           1247 ; genAssign (pointer)
   045F 3E 00              1248 	ld	a,#0x00
   0461 12                 1249 	ld	(de),a
                           1250 ; genPlus
                           1251 ; genPlusIncr
   0462 11 BB 00           1252 	ld	de,#_SimpleFish + 0 + 187
                           1253 ; genAssign (pointer)
   0465 3E 00              1254 	ld	a,#0x00
   0467 12                 1255 	ld	(de),a
                           1256 ; genPlus
                           1257 ; genPlusIncr
   0468 11 BC 00           1258 	ld	de,#_SimpleFish + 0 + 188
                           1259 ; genAssign (pointer)
   046B 3E 00              1260 	ld	a,#0x00
   046D 12                 1261 	ld	(de),a
                           1262 ; genPlus
                           1263 ; genPlusIncr
   046E 11 BD 00           1264 	ld	de,#_SimpleFish + 0 + 189
                           1265 ; genAssign (pointer)
   0471 3E 00              1266 	ld	a,#0x00
   0473 12                 1267 	ld	(de),a
                           1268 ; genPlus
                           1269 ; genPlusIncr
   0474 11 BE 00           1270 	ld	de,#_SimpleFish + 0 + 190
                           1271 ; genAssign (pointer)
   0477 3E 00              1272 	ld	a,#0x00
   0479 12                 1273 	ld	(de),a
                           1274 ; genPlus
                           1275 ; genPlusIncr
   047A 11 BF 00           1276 	ld	de,#_SimpleFish + 0 + 191
                           1277 ; genAssign (pointer)
   047D 3E 00              1278 	ld	a,#0x00
   047F 12                 1279 	ld	(de),a
                           1280 ;	main.c 83
                           1281 ; genAssign
                           1282 ; AOP_HL for _spritesize
   0480 21 E0 00           1283 	ld	hl,#_spritesize + 0
   0483 36 08              1284 	ld	(hl),#0x08
                           1285 ;--------------------------------------------------------
                           1286 ; Home
                           1287 ;--------------------------------------------------------
                           1288 	.area _HOME
                           1289 	.area _CODE
                           1290 ;--------------------------------------------------------
                           1291 ; code
                           1292 ;--------------------------------------------------------
                           1293 	.area _CODE
                           1294 ;	main.c 10
                           1295 ; genLabel
                           1296 ; genFunction
                           1297 ;	---------------------------------
                           1298 ; Function movegamecharacter
                           1299 ; ---------------------------------
   0000                    1300 ___movegamecharacter_start:
   0000                    1301 _movegamecharacter:
   0000 C5                 1302 	push	bc
   0001 E8 FC              1303 	lda	sp,-4(sp)
                           1304 ;	main.c 12
                           1305 ; genAssign
                           1306 ; AOP_STK for 
                           1307 ; AOP_STK for _movegamecharacter_sloc1_1_0
   0003 F8 08              1308 	lda	hl,8(sp)
   0005 2A                 1309 	ld	a,(hl+)
   0006 5E                 1310 	ld	e,(hl)
   0007 F8 01              1311 	lda	hl,1(sp)
   0009 22                 1312 	ld	(hl+),a
   000A 73                 1313 	ld	(hl),e
                           1314 ; genPointerGet
                           1315 ; AOP_STK for _movegamecharacter_sloc1_1_0
                           1316 ; AOP_STK for _movegamecharacter_sloc0_1_0
   000B 2B                 1317 	dec	hl
   000C 5E                 1318 	ld	e,(hl)
   000D 23                 1319 	inc	hl
   000E 56                 1320 	ld	d,(hl)
   000F 1A                 1321 	ld	a,(de)
   0010 23                 1322 	inc	hl
   0011 77                 1323 	ld	(hl),a
                           1324 ; genIpush
                           1325 ; AOP_STK for 
   0012 F8 0B              1326 	lda	hl,11(sp)
   0014 7E                 1327 	ld	a,(hl)
   0015 F5                 1328 	push	af
   0016 33                 1329 	inc	sp
                           1330 ; genIpush
                           1331 ; AOP_STK for 
   0017 2B                 1332 	dec	hl
   0018 7E                 1333 	ld	a,(hl)
   0019 F5                 1334 	push	af
   001A 33                 1335 	inc	sp
                           1336 ; genIpush
                           1337 ; AOP_STK for _movegamecharacter_sloc0_1_0
   001B F8 05              1338 	lda	hl,5(sp)
   001D 7E                 1339 	ld	a,(hl)
   001E F5                 1340 	push	af
   001F 33                 1341 	inc	sp
                           1342 ; genCall
   0020 CD 00 00           1343 	call	_move_sprite
   0023 E8 03              1344 	lda	sp,3(sp)
                           1345 ;	main.c 13
                           1346 ; genPlus
                           1347 ; AOP_STK for 
                           1348 ; AOP_HL for _spritesize
                           1349 ; AOP_STK for _movegamecharacter_sloc2_1_0
                           1350 ;	genPlusIncr failed
   0025 F8 0A              1351 	lda	hl,10(sp)
   0027 7E                 1352 	ld	a,(hl)
   0028 21 E0 00           1353 	ld	hl,#_spritesize + 0
   002B 86                 1354 	add	a,(hl)
   002C F8 00              1355 	lda	hl,0(sp)
                           1356 ; genPlus
                           1357 ; AOP_STK for _movegamecharacter_sloc1_1_0
                           1358 ; genPlusIncr
   002E 22                 1359 	ld	(hl+),a
   002F 5E                 1360 	ld	e,(hl)
   0030 23                 1361 	inc	hl
   0031 56                 1362 	ld	d,(hl)
   0032 13                 1363 	inc	de
                           1364 ; genPointerGet
   0033 1A                 1365 	ld	a,(de)
   0034 47                 1366 	ld	b,a
                           1367 ; genIpush
                           1368 ; AOP_STK for 
   0035 F8 0B              1369 	lda	hl,11(sp)
   0037 7E                 1370 	ld	a,(hl)
   0038 F5                 1371 	push	af
   0039 33                 1372 	inc	sp
                           1373 ; genIpush
                           1374 ; AOP_STK for _movegamecharacter_sloc2_1_0
   003A F8 01              1375 	lda	hl,1(sp)
   003C 7E                 1376 	ld	a,(hl)
   003D F5                 1377 	push	af
   003E 33                 1378 	inc	sp
                           1379 ; genIpush
   003F 78                 1380 	ld	a,b
   0040 F5                 1381 	push	af
   0041 33                 1382 	inc	sp
                           1383 ; genCall
   0042 CD 00 00           1384 	call	_move_sprite
   0045 E8 03              1385 	lda	sp,3(sp)
                           1386 ;	main.c 14
                           1387 ; genLeftShift
                           1388 ; AOP_HL for _spritesize
   0047 21 E0 00           1389 	ld	hl,#_spritesize + 0
   004A 7E                 1390 	ld	a,(hl)
   004B 87                 1391 	add	a,a
   004C 47                 1392 	ld	b,a
                           1393 ; genPlus
                           1394 ; AOP_STK for 
                           1395 ; AOP_STK for _movegamecharacter_sloc0_1_0
                           1396 ;	genPlusIncr failed
   004D F8 0A              1397 	lda	hl,10(sp)
   004F 7E                 1398 	ld	a,(hl)
   0050 80                 1399 	add	a,b
   0051 F8 03              1400 	lda	hl,3(sp)
   0053 77                 1401 	ld	(hl),a
                           1402 ; genPlus
                           1403 ; AOP_STK for _movegamecharacter_sloc1_1_0
                           1404 ; genPlusIncr
   0054 2B                 1405 	dec	hl
   0055 2B                 1406 	dec	hl
   0056 5E                 1407 	ld	e,(hl)
   0057 23                 1408 	inc	hl
   0058 56                 1409 	ld	d,(hl)
   0059 13                 1410 	inc	de
   005A 13                 1411 	inc	de
                           1412 ; genPointerGet
   005B 1A                 1413 	ld	a,(de)
   005C 47                 1414 	ld	b,a
                           1415 ; genIpush
                           1416 ; AOP_STK for 
   005D F8 0B              1417 	lda	hl,11(sp)
   005F 7E                 1418 	ld	a,(hl)
   0060 F5                 1419 	push	af
   0061 33                 1420 	inc	sp
                           1421 ; genIpush
                           1422 ; AOP_STK for _movegamecharacter_sloc0_1_0
   0062 F8 04              1423 	lda	hl,4(sp)
   0064 7E                 1424 	ld	a,(hl)
   0065 F5                 1425 	push	af
   0066 33                 1426 	inc	sp
                           1427 ; genIpush
   0067 78                 1428 	ld	a,b
   0068 F5                 1429 	push	af
   0069 33                 1430 	inc	sp
                           1431 ; genCall
   006A CD 00 00           1432 	call	_move_sprite
   006D E8 03              1433 	lda	sp,3(sp)
                           1434 ;	main.c 15
                           1435 ; genPlus
                           1436 ; AOP_STK for 
                           1437 ; AOP_HL for _spritesize
                           1438 ;	genPlusIncr failed
   006F F8 0B              1439 	lda	hl,11(sp)
   0071 7E                 1440 	ld	a,(hl)
   0072 21 E0 00           1441 	ld	hl,#_spritesize + 0
   0075 86                 1442 	add	a,(hl)
   0076 47                 1443 	ld	b,a
                           1444 ; genPlus
                           1445 ; AOP_STK for _movegamecharacter_sloc1_1_0
                           1446 ; genPlusIncr
                           1447 ;	genPlusIncr failed
   0077 F8 01              1448 	lda	hl,1(sp)
   0079 5E                 1449 	ld	e,(hl)
   007A 23                 1450 	inc	hl
   007B 56                 1451 	ld	d,(hl)
   007C 21 03 00           1452 	ld	hl,#0x0003
   007F 19                 1453 	add	hl,de
   0080 5D                 1454 	ld	e,l
   0081 54                 1455 	ld	d,h
                           1456 ; genPointerGet
   0082 1A                 1457 	ld	a,(de)
   0083 4F                 1458 	ld	c,a
                           1459 ; genIpush
   0084 78                 1460 	ld	a,b
   0085 F5                 1461 	push	af
   0086 33                 1462 	inc	sp
                           1463 ; genIpush
                           1464 ; AOP_STK for 
   0087 F8 0B              1465 	lda	hl,11(sp)
   0089 7E                 1466 	ld	a,(hl)
   008A F5                 1467 	push	af
   008B 33                 1468 	inc	sp
                           1469 ; genIpush
   008C 79                 1470 	ld	a,c
   008D F5                 1471 	push	af
   008E 33                 1472 	inc	sp
                           1473 ; genCall
   008F CD 00 00           1474 	call	_move_sprite
   0092 E8 03              1475 	lda	sp,3(sp)
                           1476 ;	main.c 16
                           1477 ; genPlus
                           1478 ; AOP_STK for _movegamecharacter_sloc1_1_0
                           1479 ; genPlusIncr
                           1480 ;	genPlusIncr failed
   0094 F8 01              1481 	lda	hl,1(sp)
   0096 5E                 1482 	ld	e,(hl)
   0097 23                 1483 	inc	hl
   0098 56                 1484 	ld	d,(hl)
   0099 21 04 00           1485 	ld	hl,#0x0004
   009C 19                 1486 	add	hl,de
   009D 5D                 1487 	ld	e,l
   009E 54                 1488 	ld	d,h
                           1489 ; genPointerGet
   009F 1A                 1490 	ld	a,(de)
   00A0 4F                 1491 	ld	c,a
                           1492 ; genIpush
   00A1 78                 1493 	ld	a,b
   00A2 F5                 1494 	push	af
   00A3 33                 1495 	inc	sp
                           1496 ; genIpush
                           1497 ; AOP_STK for _movegamecharacter_sloc2_1_0
   00A4 F8 01              1498 	lda	hl,1(sp)
   00A6 7E                 1499 	ld	a,(hl)
   00A7 F5                 1500 	push	af
   00A8 33                 1501 	inc	sp
                           1502 ; genIpush
   00A9 79                 1503 	ld	a,c
   00AA F5                 1504 	push	af
   00AB 33                 1505 	inc	sp
                           1506 ; genCall
   00AC CD 00 00           1507 	call	_move_sprite
   00AF E8 03              1508 	lda	sp,3(sp)
                           1509 ;	main.c 17
                           1510 ; genPlus
                           1511 ; AOP_STK for _movegamecharacter_sloc1_1_0
                           1512 ; genPlusIncr
                           1513 ;	genPlusIncr failed
   00B1 F8 01              1514 	lda	hl,1(sp)
   00B3 5E                 1515 	ld	e,(hl)
   00B4 23                 1516 	inc	hl
   00B5 56                 1517 	ld	d,(hl)
   00B6 21 05 00           1518 	ld	hl,#0x0005
   00B9 19                 1519 	add	hl,de
   00BA 5D                 1520 	ld	e,l
   00BB 54                 1521 	ld	d,h
                           1522 ; genPointerGet
   00BC 1A                 1523 	ld	a,(de)
   00BD 4F                 1524 	ld	c,a
                           1525 ; genIpush
   00BE 78                 1526 	ld	a,b
   00BF F5                 1527 	push	af
   00C0 33                 1528 	inc	sp
                           1529 ; genIpush
                           1530 ; AOP_STK for _movegamecharacter_sloc0_1_0
   00C1 F8 04              1531 	lda	hl,4(sp)
   00C3 7E                 1532 	ld	a,(hl)
   00C4 F5                 1533 	push	af
   00C5 33                 1534 	inc	sp
                           1535 ; genIpush
   00C6 79                 1536 	ld	a,c
   00C7 F5                 1537 	push	af
   00C8 33                 1538 	inc	sp
                           1539 ; genCall
   00C9 CD 00 00           1540 	call	_move_sprite
   00CC E8 03              1541 	lda	sp,3(sp)
                           1542 ; genLabel
   00CE                    1543 00101$:
                           1544 ; genEndFunction
   00CE E8 04              1545 	lda	sp,4(sp)
   00D0 C1                 1546 	pop	bc
   00D1 C9                 1547 	ret
   00D2                    1548 ___movegamecharacter_end:
                           1549 ;	main.c 20
                           1550 ; genLabel
                           1551 ; genFunction
                           1552 ;	---------------------------------
                           1553 ; Function setupfishr
                           1554 ; ---------------------------------
   00D2                    1555 ___setupfishr_start:
   00D2                    1556 _setupfishr:
   00D2 C5                 1557 	push	bc
   00D3 E8 FD              1558 	lda	sp,-3(sp)
                           1559 ;	main.c 22
                           1560 ; genPlus
                           1561 ; AOP_STK for _setupfishr_sloc0_1_0
                           1562 ; genPlusIncr
                           1563 ;	genPlusIncr failed
   00D5 11 C0 00           1564 	ld	de,#_fishr + 0
   00D8 21 0C 00           1565 	ld	hl,#0x000C
   00DB 19                 1566 	add	hl,de
   00DC 7D                 1567 	ld	a,l
   00DD 54                 1568 	ld	d,h
   00DE F8 01              1569 	lda	hl,1(sp)
   00E0 22                 1570 	ld	(hl+),a
   00E1 72                 1571 	ld	(hl),d
                           1572 ; genAssign (pointer)
                           1573 ; AOP_STK for _setupfishr_sloc0_1_0
   00E2 2B                 1574 	dec	hl
   00E3 5E                 1575 	ld	e,(hl)
   00E4 23                 1576 	inc	hl
   00E5 56                 1577 	ld	d,(hl)
   00E6 3E 50              1578 	ld	a,#0x50
   00E8 12                 1579 	ld	(de),a
                           1580 ;	main.c 23
                           1581 ; genPlus
                           1582 ; genPlusIncr
   00E9 01 CD 00           1583 	ld	bc,#_fishr + 0 + 13
                           1584 ; genAssign (pointer)
   00EC 3E 82              1585 	ld	a,#0x82
   00EE 02                 1586 	ld	(bc),a
                           1587 ;	main.c 24
                           1588 ; genPlus
                           1589 ; genPlusIncr
   00EF 11 CE 00           1590 	ld	de,#_fishr + 0 + 14
                           1591 ; genAssign (pointer)
   00F2 3E 16              1592 	ld	a,#0x16
   00F4 12                 1593 	ld	(de),a
                           1594 ;	main.c 25
                           1595 ; genPlus
                           1596 ; genPlusIncr
   00F5 11 CF 00           1597 	ld	de,#_fishr + 0 + 15
                           1598 ; genAssign (pointer)
   00F8 3E 0B              1599 	ld	a,#0x0B
   00FA 12                 1600 	ld	(de),a
                           1601 ;	main.c 27
                           1602 ; genIpush
   00FB 3E 00              1603 	ld	a,#0x00
   00FD F5                 1604 	push	af
   00FE 33                 1605 	inc	sp
                           1606 ; genIpush
   00FF 3E 00              1607 	ld	a,#0x00
   0101 F5                 1608 	push	af
   0102 33                 1609 	inc	sp
                           1610 ; genCall
   0103 CD 00 00           1611 	call	_set_sprite_tile
   0106 E8 02              1612 	lda	sp,2(sp)
                           1613 ;	main.c 28
                           1614 ; genAssign (pointer)
   0108 11 C0 00           1615 	ld	de,#_fishr + 0
   010B 3E 00              1616 	ld	a,#0x00
   010D 12                 1617 	ld	(de),a
                           1618 ;	main.c 29
                           1619 ; genIpush
   010E 3E 01              1620 	ld	a,#0x01
   0110 F5                 1621 	push	af
   0111 33                 1622 	inc	sp
                           1623 ; genIpush
   0112 3E 01              1624 	ld	a,#0x01
   0114 F5                 1625 	push	af
   0115 33                 1626 	inc	sp
                           1627 ; genCall
   0116 CD 00 00           1628 	call	_set_sprite_tile
   0119 E8 02              1629 	lda	sp,2(sp)
                           1630 ;	main.c 30
                           1631 ; genPlus
                           1632 ; genPlusIncr
   011B 11 C1 00           1633 	ld	de,#_fishr + 0 + 1
                           1634 ; genAssign (pointer)
   011E 3E 01              1635 	ld	a,#0x01
   0120 12                 1636 	ld	(de),a
                           1637 ;	main.c 31
                           1638 ; genIpush
   0121 3E 02              1639 	ld	a,#0x02
   0123 F5                 1640 	push	af
   0124 33                 1641 	inc	sp
                           1642 ; genIpush
   0125 3E 02              1643 	ld	a,#0x02
   0127 F5                 1644 	push	af
   0128 33                 1645 	inc	sp
                           1646 ; genCall
   0129 CD 00 00           1647 	call	_set_sprite_tile
   012C E8 02              1648 	lda	sp,2(sp)
                           1649 ;	main.c 32
                           1650 ; genPlus
                           1651 ; genPlusIncr
   012E 11 C2 00           1652 	ld	de,#_fishr + 0 + 2
                           1653 ; genAssign (pointer)
   0131 3E 02              1654 	ld	a,#0x02
   0133 12                 1655 	ld	(de),a
                           1656 ;	main.c 33
                           1657 ; genIpush
   0134 3E 03              1658 	ld	a,#0x03
   0136 F5                 1659 	push	af
   0137 33                 1660 	inc	sp
                           1661 ; genIpush
   0138 3E 03              1662 	ld	a,#0x03
   013A F5                 1663 	push	af
   013B 33                 1664 	inc	sp
                           1665 ; genCall
   013C CD 00 00           1666 	call	_set_sprite_tile
   013F E8 02              1667 	lda	sp,2(sp)
                           1668 ;	main.c 34
                           1669 ; genPlus
                           1670 ; genPlusIncr
   0141 11 C3 00           1671 	ld	de,#_fishr + 0 + 3
                           1672 ; genAssign (pointer)
   0144 3E 03              1673 	ld	a,#0x03
   0146 12                 1674 	ld	(de),a
                           1675 ;	main.c 35
                           1676 ; genIpush
   0147 3E 04              1677 	ld	a,#0x04
   0149 F5                 1678 	push	af
   014A 33                 1679 	inc	sp
                           1680 ; genIpush
   014B 3E 04              1681 	ld	a,#0x04
   014D F5                 1682 	push	af
   014E 33                 1683 	inc	sp
                           1684 ; genCall
   014F CD 00 00           1685 	call	_set_sprite_tile
   0152 E8 02              1686 	lda	sp,2(sp)
                           1687 ;	main.c 36
                           1688 ; genPlus
                           1689 ; genPlusIncr
   0154 11 C4 00           1690 	ld	de,#_fishr + 0 + 4
                           1691 ; genAssign (pointer)
   0157 3E 04              1692 	ld	a,#0x04
   0159 12                 1693 	ld	(de),a
                           1694 ;	main.c 37
                           1695 ; genIpush
   015A 3E 05              1696 	ld	a,#0x05
   015C F5                 1697 	push	af
   015D 33                 1698 	inc	sp
                           1699 ; genIpush
   015E 3E 05              1700 	ld	a,#0x05
   0160 F5                 1701 	push	af
   0161 33                 1702 	inc	sp
                           1703 ; genCall
   0162 CD 00 00           1704 	call	_set_sprite_tile
   0165 E8 02              1705 	lda	sp,2(sp)
                           1706 ;	main.c 38
                           1707 ; genPlus
                           1708 ; genPlusIncr
   0167 11 C5 00           1709 	ld	de,#_fishr + 0 + 5
                           1710 ; genAssign (pointer)
   016A 3E 05              1711 	ld	a,#0x05
   016C 12                 1712 	ld	(de),a
                           1713 ;	main.c 40
                           1714 ; genPointerGet
                           1715 ; AOP_STK for _setupfishr_sloc1_1_0
   016D 0A                 1716 	ld	a,(bc)
   016E F8 00              1717 	lda	hl,0(sp)
                           1718 ; genPointerGet
                           1719 ; AOP_STK for _setupfishr_sloc0_1_0
   0170 22                 1720 	ld	(hl+),a
   0171 5E                 1721 	ld	e,(hl)
   0172 23                 1722 	inc	hl
   0173 56                 1723 	ld	d,(hl)
   0174 1A                 1724 	ld	a,(de)
   0175 4F                 1725 	ld	c,a
                           1726 ; genIpush
                           1727 ; AOP_STK for _setupfishr_sloc1_1_0
   0176 2B                 1728 	dec	hl
   0177 2B                 1729 	dec	hl
   0178 7E                 1730 	ld	a,(hl)
   0179 F5                 1731 	push	af
   017A 33                 1732 	inc	sp
                           1733 ; genIpush
   017B 79                 1734 	ld	a,c
   017C F5                 1735 	push	af
   017D 33                 1736 	inc	sp
                           1737 ; genIpush
   017E 21 C0 00           1738 	ld	hl,#_fishr + 0
   0181 E5                 1739 	push	hl
                           1740 ; genCall
   0182 CD 00 00           1741 	call	_movegamecharacter
   0185 E8 04              1742 	lda	sp,4(sp)
                           1743 ; genLabel
   0187                    1744 00101$:
                           1745 ; genEndFunction
   0187 E8 03              1746 	lda	sp,3(sp)
   0189 C1                 1747 	pop	bc
   018A C9                 1748 	ret
   018B                    1749 ___setupfishr_end:
                           1750 ;	main.c 43
                           1751 ; genLabel
                           1752 ; genFunction
                           1753 ;	---------------------------------
                           1754 ; Function setupfishl
                           1755 ; ---------------------------------
   018B                    1756 ___setupfishl_start:
   018B                    1757 _setupfishl:
   018B C5                 1758 	push	bc
   018C E8 FD              1759 	lda	sp,-3(sp)
                           1760 ;	main.c 45
                           1761 ; genPlus
                           1762 ; AOP_STK for _setupfishl_sloc0_1_0
                           1763 ; genPlusIncr
                           1764 ;	genPlusIncr failed
   018E 11 D0 00           1765 	ld	de,#_fishl + 0
   0191 21 0C 00           1766 	ld	hl,#0x000C
   0194 19                 1767 	add	hl,de
   0195 7D                 1768 	ld	a,l
   0196 54                 1769 	ld	d,h
   0197 F8 01              1770 	lda	hl,1(sp)
   0199 22                 1771 	ld	(hl+),a
   019A 72                 1772 	ld	(hl),d
                           1773 ; genAssign (pointer)
                           1774 ; AOP_STK for _setupfishl_sloc0_1_0
   019B 2B                 1775 	dec	hl
   019C 5E                 1776 	ld	e,(hl)
   019D 23                 1777 	inc	hl
   019E 56                 1778 	ld	d,(hl)
   019F 3E 66              1779 	ld	a,#0x66
   01A1 12                 1780 	ld	(de),a
                           1781 ;	main.c 46
                           1782 ; genPlus
                           1783 ; genPlusIncr
   01A2 01 DD 00           1784 	ld	bc,#_fishl + 0 + 13
                           1785 ; genAssign (pointer)
   01A5 3E 82              1786 	ld	a,#0x82
   01A7 02                 1787 	ld	(bc),a
                           1788 ;	main.c 47
                           1789 ; genPlus
                           1790 ; genPlusIncr
   01A8 11 DE 00           1791 	ld	de,#_fishl + 0 + 14
                           1792 ; genAssign (pointer)
   01AB 3E 16              1793 	ld	a,#0x16
   01AD 12                 1794 	ld	(de),a
                           1795 ;	main.c 48
                           1796 ; genPlus
                           1797 ; genPlusIncr
   01AE 11 DF 00           1798 	ld	de,#_fishl + 0 + 15
                           1799 ; genAssign (pointer)
   01B1 3E 0B              1800 	ld	a,#0x0B
   01B3 12                 1801 	ld	(de),a
                           1802 ;	main.c 50
                           1803 ; genIpush
   01B4 3E 06              1804 	ld	a,#0x06
   01B6 F5                 1805 	push	af
   01B7 33                 1806 	inc	sp
                           1807 ; genIpush
   01B8 3E 06              1808 	ld	a,#0x06
   01BA F5                 1809 	push	af
   01BB 33                 1810 	inc	sp
                           1811 ; genCall
   01BC CD 00 00           1812 	call	_set_sprite_tile
   01BF E8 02              1813 	lda	sp,2(sp)
                           1814 ;	main.c 51
                           1815 ; genAssign (pointer)
   01C1 11 D0 00           1816 	ld	de,#_fishl + 0
   01C4 3E 06              1817 	ld	a,#0x06
   01C6 12                 1818 	ld	(de),a
                           1819 ;	main.c 53
                           1820 ; genIpush
   01C7 3E 07              1821 	ld	a,#0x07
   01C9 F5                 1822 	push	af
   01CA 33                 1823 	inc	sp
                           1824 ; genIpush
   01CB 3E 07              1825 	ld	a,#0x07
   01CD F5                 1826 	push	af
   01CE 33                 1827 	inc	sp
                           1828 ; genCall
   01CF CD 00 00           1829 	call	_set_sprite_tile
   01D2 E8 02              1830 	lda	sp,2(sp)
                           1831 ;	main.c 54
                           1832 ; genPlus
                           1833 ; genPlusIncr
   01D4 11 D1 00           1834 	ld	de,#_fishl + 0 + 1
                           1835 ; genAssign (pointer)
   01D7 3E 07              1836 	ld	a,#0x07
   01D9 12                 1837 	ld	(de),a
                           1838 ;	main.c 56
                           1839 ; genIpush
   01DA 3E 08              1840 	ld	a,#0x08
   01DC F5                 1841 	push	af
   01DD 33                 1842 	inc	sp
                           1843 ; genIpush
   01DE 3E 08              1844 	ld	a,#0x08
   01E0 F5                 1845 	push	af
   01E1 33                 1846 	inc	sp
                           1847 ; genCall
   01E2 CD 00 00           1848 	call	_set_sprite_tile
   01E5 E8 02              1849 	lda	sp,2(sp)
                           1850 ;	main.c 57
                           1851 ; genPlus
                           1852 ; genPlusIncr
   01E7 11 D2 00           1853 	ld	de,#_fishl + 0 + 2
                           1854 ; genAssign (pointer)
   01EA 3E 08              1855 	ld	a,#0x08
   01EC 12                 1856 	ld	(de),a
                           1857 ;	main.c 59
                           1858 ; genIpush
   01ED 3E 09              1859 	ld	a,#0x09
   01EF F5                 1860 	push	af
   01F0 33                 1861 	inc	sp
                           1862 ; genIpush
   01F1 3E 09              1863 	ld	a,#0x09
   01F3 F5                 1864 	push	af
   01F4 33                 1865 	inc	sp
                           1866 ; genCall
   01F5 CD 00 00           1867 	call	_set_sprite_tile
   01F8 E8 02              1868 	lda	sp,2(sp)
                           1869 ;	main.c 60
                           1870 ; genPlus
                           1871 ; genPlusIncr
   01FA 11 D3 00           1872 	ld	de,#_fishl + 0 + 3
                           1873 ; genAssign (pointer)
   01FD 3E 09              1874 	ld	a,#0x09
   01FF 12                 1875 	ld	(de),a
                           1876 ;	main.c 62
                           1877 ; genIpush
   0200 3E 0A              1878 	ld	a,#0x0A
   0202 F5                 1879 	push	af
   0203 33                 1880 	inc	sp
                           1881 ; genIpush
   0204 3E 0A              1882 	ld	a,#0x0A
   0206 F5                 1883 	push	af
   0207 33                 1884 	inc	sp
                           1885 ; genCall
   0208 CD 00 00           1886 	call	_set_sprite_tile
   020B E8 02              1887 	lda	sp,2(sp)
                           1888 ;	main.c 63
                           1889 ; genPlus
                           1890 ; genPlusIncr
   020D 11 D4 00           1891 	ld	de,#_fishl + 0 + 4
                           1892 ; genAssign (pointer)
   0210 3E 0A              1893 	ld	a,#0x0A
   0212 12                 1894 	ld	(de),a
                           1895 ;	main.c 65
                           1896 ; genIpush
   0213 3E 0B              1897 	ld	a,#0x0B
   0215 F5                 1898 	push	af
   0216 33                 1899 	inc	sp
                           1900 ; genIpush
   0217 3E 0B              1901 	ld	a,#0x0B
   0219 F5                 1902 	push	af
   021A 33                 1903 	inc	sp
                           1904 ; genCall
   021B CD 00 00           1905 	call	_set_sprite_tile
   021E E8 02              1906 	lda	sp,2(sp)
                           1907 ;	main.c 66
                           1908 ; genPlus
                           1909 ; genPlusIncr
   0220 11 D5 00           1910 	ld	de,#_fishl + 0 + 5
                           1911 ; genAssign (pointer)
   0223 3E 0B              1912 	ld	a,#0x0B
   0225 12                 1913 	ld	(de),a
                           1914 ;	main.c 68
                           1915 ; genPointerGet
                           1916 ; AOP_STK for _setupfishl_sloc1_1_0
   0226 0A                 1917 	ld	a,(bc)
   0227 F8 00              1918 	lda	hl,0(sp)
                           1919 ; genPointerGet
                           1920 ; AOP_STK for _setupfishl_sloc0_1_0
   0229 22                 1921 	ld	(hl+),a
   022A 5E                 1922 	ld	e,(hl)
   022B 23                 1923 	inc	hl
   022C 56                 1924 	ld	d,(hl)
   022D 1A                 1925 	ld	a,(de)
   022E 4F                 1926 	ld	c,a
                           1927 ; genIpush
                           1928 ; AOP_STK for _setupfishl_sloc1_1_0
   022F 2B                 1929 	dec	hl
   0230 2B                 1930 	dec	hl
   0231 7E                 1931 	ld	a,(hl)
   0232 F5                 1932 	push	af
   0233 33                 1933 	inc	sp
                           1934 ; genIpush
   0234 79                 1935 	ld	a,c
   0235 F5                 1936 	push	af
   0236 33                 1937 	inc	sp
                           1938 ; genIpush
   0237 21 D0 00           1939 	ld	hl,#_fishl + 0
   023A E5                 1940 	push	hl
                           1941 ; genCall
   023B CD 00 00           1942 	call	_movegamecharacter
   023E E8 04              1943 	lda	sp,4(sp)
                           1944 ; genLabel
   0240                    1945 00101$:
                           1946 ; genEndFunction
   0240 E8 03              1947 	lda	sp,3(sp)
   0242 C1                 1948 	pop	bc
   0243 C9                 1949 	ret
   0244                    1950 ___setupfishl_end:
                           1951 ;	main.c 71
                           1952 ; genLabel
                           1953 ; genFunction
                           1954 ;	---------------------------------
                           1955 ; Function main
                           1956 ; ---------------------------------
   0244                    1957 ___main_start:
   0244                    1958 _main:
                           1959 	
                           1960 ;	main.c 73
                           1961 ; genIpush
   0244 21 00 00           1962 	ld	hl,#_SimpleFish + 0
   0247 E5                 1963 	push	hl
                           1964 ; genIpush
   0248 3E 0C              1965 	ld	a,#0x0C
   024A F5                 1966 	push	af
   024B 33                 1967 	inc	sp
                           1968 ; genIpush
   024C 3E 00              1969 	ld	a,#0x00
   024E F5                 1970 	push	af
   024F 33                 1971 	inc	sp
                           1972 ; genCall
   0250 CD 00 00           1973 	call	_set_sprite_data
   0253 E8 04              1974 	lda	sp,4(sp)
                           1975 ;	main.c 74
                           1976 ; genCall
   0255 CD D2 00           1977 	call	_setupfishr
                           1978 ;	main.c 75
                           1979 ; genCall
   0258 CD 8B 01           1980 	call	_setupfishl
                           1981 ;	main.c 76
                           1982 ; genOr
                           1983 ; AOP_SFR for _LCDC_REG
                           1984 ; Type res[4] = l[4]&r[1]
                           1985 ; Size res[1] = l[1]&r[1]
   025B F0 00              1986 	ldh	a,(_LCDC_REG+0) ; x
   025D F6 02              1987 	or	a,#0x02
   025F E0 00              1988 	ldh	(_LCDC_REG+0),a
                           1989 ;	main.c 77
                           1990 ; genOr
                           1991 ; AOP_SFR for _LCDC_REG
                           1992 ; Type res[4] = l[4]&r[1]
                           1993 ; Size res[1] = l[1]&r[1]
   0261 F0 00              1994 	ldh	a,(_LCDC_REG+0) ; x
   0263 F6 80              1995 	or	a,#0x80
   0265 E0 00              1996 	ldh	(_LCDC_REG+0),a
                           1997 ;	main.c 79
                           1998 ; genLabel
   0267                    1999 00102$:
                           2000 ; genGoto
   0267 C3 67 02           2001 	jp	00102$
                           2002 ; genLabel
   026A                    2003 00104$:
                           2004 ; genEndFunction
                           2005 	
   026A C9                 2006 	ret
   026B                    2007 ___main_end:
                           2008 	.area _CODE
ASxxxx Assembler V01.75  (GameBoy Z80-like CPU), page 1.

Symbol Table

    _BCPD_REG                          **** GX
    _BCPS_REG                          **** GX
    _BGP_REG                           **** GX
    _DIV_REG                           **** GX
    _DMA_REG                           **** GX
    _HDMA1_REG                         **** GX
    _HDMA2_REG                         **** GX
    _HDMA3_REG                         **** GX
    _HDMA4_REG                         **** GX
    _HDMA5_REG                         **** GX
    _IE_REG                            **** GX
    _IF_REG                            **** GX
    _KEY1_REG                          **** GX
    _LCDC_REG                          **** GX
    _LYC_REG                           **** GX
    _LY_REG                            **** GX
    _NR10_REG                          **** GX
    _NR11_REG                          **** GX
    _NR12_REG                          **** GX
    _NR13_REG                          **** GX
    _NR14_REG                          **** GX
    _NR21_REG                          **** GX
    _NR22_REG                          **** GX
    _NR23_REG                          **** GX
    _NR24_REG                          **** GX
    _NR30_REG                          **** GX
    _NR31_REG                          **** GX
    _NR32_REG                          **** GX
    _NR33_REG                          **** GX
    _NR34_REG                          **** GX
    _NR41_REG                          **** GX
    _NR42_REG                          **** GX
    _NR43_REG                          **** GX
    _NR44_REG                          **** GX
    _NR50_REG                          **** GX
    _NR51_REG                          **** GX
    _NR52_REG                          **** GX
    _OBP0_REG                          **** GX
    _OBP1_REG                          **** GX
    _OCPD_REG                          **** GX
    _OCPS_REG                          **** GX
    _P1_REG                            **** GX
    _RP_REG                            **** GX
    _SB_REG                            **** GX
    _SCX_REG                           **** GX
    _SCY_REG                           **** GX
    _SC_REG                            **** GX
    _STAT_REG                          **** GX
    _SVBK_REG                          **** GX
  1 _SimpleFish                        0000 GR
    _TAC_REG                           **** GX
    _TIMA_REG                          **** GX
    _TMA_REG                           **** GX
    _VBK_REG                           **** GX
    _WX_REG                            **** GX
    _WY_REG                            **** GX
  0 ___main_end                        026B R
  0 ___main_start                      0244 R
  0 ___movegamecharacter_end           00D2 R
  0 ___movegamecharacter_start         0000 R
  0 ___setupfishl_end                  0244 R
  0 ___setupfishl_start                018B R
  0 ___setupfishr_end                  018B R
  0 ___setupfishr_start                00D2 R
    __cpu                              **** GX
    __io_in                            **** GX
    __io_out                           **** GX
    __io_status                        **** GX
  1 _fishl                             00D0 GR
  1 _fishr                             00C0 GR
  0 _main                              0244 GR
    _move_sprite                       **** GX
  0 _movegamecharacter                 0000 GR
    _set_sprite_data                   **** GX
    _set_sprite_tile                   **** GX
  0 _setupfishl                        018B GR
  0 _setupfishr                        00D2 GR
  1 _spritesize                        00E0 GR
    _sys_time                          **** GX

ASxxxx Assembler V01.75  (GameBoy Z80-like CPU), page 2.

Area Table

   0 _CODE                              size  26B   flags 0
   1 _DATA                              size   E1   flags 0
   2 _OVERLAY                           size    0   flags 0
   3 _ISEG                              size    0   flags 0
   4 _BSEG                              size    0   flags 0
   5 _XSEG                              size    0   flags 0
   6 _GSINIT                            size  485   flags 0
   7 _GSFINAL                           size    0   flags 0
   8 _HOME                              size    0   flags 0
